target datalayout = "e-m:e-p270:32:32-p271:32:32-p272:64:64-i64:64-i128:128-f80:128-n8:16:32:64-S128"
target triple = "x86_64-pc-linux-gnu"

@mv_penalty = internal global [8 x [16385 x i8]] zeroinitializer, align 16
@fcode_tab = internal global [8193 x i8] zeroinitializer, align 16
@uni_mpeg2_ac_vlc_len = internal global [8192 x i8] zeroinitializer, align 16
@uni_mpeg1_ac_vlc_len = internal global [8192 x i8] zeroinitializer, align 16
@ff_mpeg12_mbMotionVectorTable = external constant [17 x [2 x i8]], align 16
@ff_mpeg1_vlc_table = external constant [113 x [2 x i16]], align 16
@ff_mpeg2_vlc_table = external constant [113 x [2 x i16]], align 16
@mpeg12_max_level = internal global [65 x i8] zeroinitializer, align 16
@mpeg12_index_run = internal global [65 x i8] zeroinitializer, align 16
@ff_mpeg12_vlc_dc_lum_bits = external constant [12 x i8], align 1
@ff_mpeg12_vlc_dc_lum_code = external constant [12 x i16], align 16
@ff_mpeg12_vlc_dc_chroma_bits = external constant [12 x i8], align 1
@ff_mpeg12_vlc_dc_chroma_code = external constant [12 x i16], align 16
@mpeg1_lum_dc_uni = internal global [512 x i32] zeroinitializer, align 16
@mpeg1_chr_dc_uni = internal global [512 x i32] zeroinitializer, align 16
@ff_log2_tab = external constant [256 x i8], align 16
@ff_mpeg12_run = external constant [111 x i8], align 16
@ff_mpeg12_level = external constant [111 x i8], align 16

; Function Attrs: alwaysinline nounwind willreturn memory(none) uwtable
define internal i32 @av_zero_extend_c(i32 noundef %0, i32 noundef %1) #6 {
  %3 = alloca i32, align 4
  %4 = alloca i32, align 4
  store i32 %0, ptr %3, align 4, !tbaa !11
  store i32 %1, ptr %4, align 4, !tbaa !11
  %5 = load i32, ptr %3, align 4, !tbaa !11
  %6 = load i32, ptr %4, align 4, !tbaa !11
  %7 = shl i32 1, %6
  %8 = sub i32 %7, 1
  %9 = and i32 %5, %8
  ret i32 %9
}

; Function Attrs: alwaysinline nounwind willreturn memory(none) uwtable
define internal i32 @ff_log2_c(i32 noundef %0) #6 {
  %2 = alloca i32, align 4
  %3 = alloca i32, align 4
  store i32 %0, ptr %2, align 4, !tbaa !11
  call void @llvm.lifetime.start.p0(i64 4, ptr %3) #13
  store i32 0, ptr %3, align 4, !tbaa !11
  %4 = load i32, ptr %2, align 4, !tbaa !11
  %5 = and i32 %4, -65536
  %6 = icmp ne i32 %5, 0
  br i1 %6, label %7, label %12

7:                                                ; preds = %1
  %8 = load i32, ptr %2, align 4, !tbaa !11
  %9 = lshr i32 %8, 16
  store i32 %9, ptr %2, align 4, !tbaa !11
  %10 = load i32, ptr %3, align 4, !tbaa !11
  %11 = add nsw i32 %10, 16
  store i32 %11, ptr %3, align 4, !tbaa !11
  br label %12

12:                                               ; preds = %7, %1
  %13 = load i32, ptr %2, align 4, !tbaa !11
  %14 = and i32 %13, 65280
  %15 = icmp ne i32 %14, 0
  br i1 %15, label %16, label %21

16:                                               ; preds = %12
  %17 = load i32, ptr %2, align 4, !tbaa !11
  %18 = lshr i32 %17, 8
  store i32 %18, ptr %2, align 4, !tbaa !11
  %19 = load i32, ptr %3, align 4, !tbaa !11
  %20 = add nsw i32 %19, 8
  store i32 %20, ptr %3, align 4, !tbaa !11
  br label %21

21:                                               ; preds = %16, %12
  %22 = load i32, ptr %2, align 4, !tbaa !11
  %23 = zext i32 %22 to i64
  %24 = getelementptr inbounds nuw [256 x i8], ptr @ff_log2_tab, i64 0, i64 %23
  %25 = load i8, ptr %24, align 1, !tbaa !13
  %26 = zext i8 %25 to i32
  %27 = load i32, ptr %3, align 4, !tbaa !11
  %28 = add nsw i32 %27, %26
  store i32 %28, ptr %3, align 4, !tbaa !11
  %29 = load i32, ptr %3, align 4, !tbaa !11
  call void @llvm.lifetime.end.p0(i64 4, ptr %3) #13
  ret i32 %29
}

; Function Attrs: cold nounwind optsize uwtable
define internal void @mpeg12_encode_init_static() #0 {
  %1 = alloca i32, align 4
  %2 = alloca i32, align 4
  %3 = alloca i32, align 4
  %4 = alloca i32, align 4
  %5 = alloca i32, align 4
  %6 = alloca i32, align 4
  %7 = alloca i32, align 4
  %8 = alloca i32, align 4
  %9 = alloca i32, align 4
  %10 = alloca i32, align 4
  %11 = alloca i32, align 4
  %12 = alloca i32, align 4
  %13 = alloca i32, align 4
  %14 = alloca i32, align 4
  %15 = alloca i32, align 4
  call void @ff_rl_init_level_run(ptr noundef @mpeg12_max_level, ptr noundef @mpeg12_index_run, ptr noundef @ff_mpeg12_run, ptr noundef @ff_mpeg12_level, i32 noundef 111)
  call void @ff_mpeg1_init_uni_ac_vlc(ptr noundef @mpeg12_max_level, ptr noundef @mpeg12_index_run, ptr noundef @ff_mpeg1_vlc_table, ptr noundef @uni_mpeg1_ac_vlc_len) #14
  call void @ff_mpeg1_init_uni_ac_vlc(ptr noundef @mpeg12_max_level, ptr noundef @mpeg12_index_run, ptr noundef @ff_mpeg2_vlc_table, ptr noundef @uni_mpeg2_ac_vlc_len) #14
  call void @llvm.lifetime.start.p0(i64 4, ptr %1) #13
  store i32 -255, ptr %1, align 4, !tbaa !11
  br label %16

16:                                               ; preds = %92, %0
  %17 = load i32, ptr %1, align 4, !tbaa !11
  %18 = icmp slt i32 %17, 256
  br i1 %18, label %20, label %19

19:                                               ; preds = %16
  call void @llvm.lifetime.end.p0(i64 4, ptr %1) #13
  br label %95

20:                                               ; preds = %16
  call void @llvm.lifetime.start.p0(i64 4, ptr %2) #13
  call void @llvm.lifetime.start.p0(i64 4, ptr %3) #13
  call void @llvm.lifetime.start.p0(i64 4, ptr %4) #13
  call void @llvm.lifetime.start.p0(i64 4, ptr %5) #13
  call void @llvm.lifetime.start.p0(i64 4, ptr %6) #13
  %21 = load i32, ptr %1, align 4, !tbaa !11
  store i32 %21, ptr %6, align 4, !tbaa !11
  %22 = load i32, ptr %6, align 4, !tbaa !11
  %23 = icmp sge i32 %22, 0
  br i1 %23, label %24, label %26

24:                                               ; preds = %20
  %25 = load i32, ptr %6, align 4, !tbaa !11
  br label %29

26:                                               ; preds = %20
  %27 = load i32, ptr %6, align 4, !tbaa !11
  %28 = sub nsw i32 0, %27
  br label %29

29:                                               ; preds = %26, %24
  %30 = phi i32 [ %25, %24 ], [ %28, %26 ]
  store i32 %30, ptr %2, align 4, !tbaa !11
  %31 = load i32, ptr %6, align 4, !tbaa !11
  %32 = icmp slt i32 %31, 0
  br i1 %32, label %33, label %36

33:                                               ; preds = %29
  %34 = load i32, ptr %6, align 4, !tbaa !11
  %35 = add nsw i32 %34, -1
  store i32 %35, ptr %6, align 4, !tbaa !11
  br label %36

36:                                               ; preds = %33, %29
  %37 = load i32, ptr %2, align 4, !tbaa !11
  %38 = mul nsw i32 2, %37
  %39 = call i32 @ff_log2_c(i32 noundef %38) #15
  store i32 %39, ptr %3, align 4, !tbaa !11
  %40 = load i32, ptr %3, align 4, !tbaa !11
  %41 = sext i32 %40 to i64
  %42 = getelementptr inbounds [12 x i8], ptr @ff_mpeg12_vlc_dc_lum_bits, i64 0, i64 %41
  %43 = load i8, ptr %42, align 1, !tbaa !13
  %44 = zext i8 %43 to i32
  %45 = load i32, ptr %3, align 4, !tbaa !11
  %46 = add nsw i32 %44, %45
  store i32 %46, ptr %4, align 4, !tbaa !11
  %47 = load i32, ptr %3, align 4, !tbaa !11
  %48 = sext i32 %47 to i64
  %49 = getelementptr inbounds [12 x i16], ptr @ff_mpeg12_vlc_dc_lum_code, i64 0, i64 %48
  %50 = load i16, ptr %49, align 2, !tbaa !14
  %51 = zext i16 %50 to i32
  %52 = load i32, ptr %3, align 4, !tbaa !11
  %53 = shl i32 %51, %52
  %54 = load i32, ptr %6, align 4, !tbaa !11
  %55 = load i32, ptr %3, align 4, !tbaa !11
  %56 = call i32 @av_zero_extend_c(i32 noundef %54, i32 noundef %55) #15
  %57 = add i32 %53, %56
  store i32 %57, ptr %5, align 4, !tbaa !11
  %58 = load i32, ptr %4, align 4, !tbaa !11
  %59 = load i32, ptr %5, align 4, !tbaa !11
  %60 = shl i32 %59, 8
  %61 = add nsw i32 %58, %60
  %62 = load i32, ptr %1, align 4, !tbaa !11
  %63 = add nsw i32 %62, 255
  %64 = sext i32 %63 to i64
  %65 = getelementptr inbounds [512 x i32], ptr @mpeg1_lum_dc_uni, i64 0, i64 %64
  store i32 %61, ptr %65, align 4, !tbaa !11
  %66 = load i32, ptr %3, align 4, !tbaa !11
  %67 = sext i32 %66 to i64
  %68 = getelementptr inbounds [12 x i8], ptr @ff_mpeg12_vlc_dc_chroma_bits, i64 0, i64 %67
  %69 = load i8, ptr %68, align 1, !tbaa !13
  %70 = zext i8 %69 to i32
  %71 = load i32, ptr %3, align 4, !tbaa !11
  %72 = add nsw i32 %70, %71
  store i32 %72, ptr %4, align 4, !tbaa !11
  %73 = load i32, ptr %3, align 4, !tbaa !11
  %74 = sext i32 %73 to i64
  %75 = getelementptr inbounds [12 x i16], ptr @ff_mpeg12_vlc_dc_chroma_code, i64 0, i64 %74
  %76 = load i16, ptr %75, align 2, !tbaa !14
  %77 = zext i16 %76 to i32
  %78 = load i32, ptr %3, align 4, !tbaa !11
  %79 = shl i32 %77, %78
  %80 = load i32, ptr %6, align 4, !tbaa !11
  %81 = load i32, ptr %3, align 4, !tbaa !11
  %82 = call i32 @av_zero_extend_c(i32 noundef %80, i32 noundef %81) #15
  %83 = add i32 %79, %82
  store i32 %83, ptr %5, align 4, !tbaa !11
  %84 = load i32, ptr %4, align 4, !tbaa !11
  %85 = load i32, ptr %5, align 4, !tbaa !11
  %86 = shl i32 %85, 8
  %87 = add nsw i32 %84, %86
  %88 = load i32, ptr %1, align 4, !tbaa !11
  %89 = add nsw i32 %88, 255
  %90 = sext i32 %89 to i64
  %91 = getelementptr inbounds [512 x i32], ptr @mpeg1_chr_dc_uni, i64 0, i64 %90
  store i32 %87, ptr %91, align 4, !tbaa !11
  call void @llvm.lifetime.end.p0(i64 4, ptr %6) #13
  call void @llvm.lifetime.end.p0(i64 4, ptr %5) #13
  call void @llvm.lifetime.end.p0(i64 4, ptr %4) #13
  call void @llvm.lifetime.end.p0(i64 4, ptr %3) #13
  call void @llvm.lifetime.end.p0(i64 4, ptr %2) #13
  br label %92

92:                                               ; preds = %36
  %93 = load i32, ptr %1, align 4, !tbaa !11
  %94 = add nsw i32 %93, 1
  store i32 %94, ptr %1, align 4, !tbaa !11
  br label %16, !llvm.loop !178

95:                                               ; preds = %19
  call void @llvm.lifetime.start.p0(i64 4, ptr %7) #13
  store i32 1, ptr %7, align 4, !tbaa !11
  br label %96

96:                                               ; preds = %155, %95
  %97 = load i32, ptr %7, align 4, !tbaa !11
  %98 = icmp sle i32 %97, 7
  br i1 %98, label %100, label %99

99:                                               ; preds = %96
  store i32 5, ptr %8, align 4
  call void @llvm.lifetime.end.p0(i64 4, ptr %7) #13
  br label %158

100:                                              ; preds = %96
  call void @llvm.lifetime.start.p0(i64 4, ptr %9) #13
  store i32 -8192, ptr %9, align 4, !tbaa !11
  br label %101

101:                                              ; preds = %151, %100
  %102 = load i32, ptr %9, align 4, !tbaa !11
  %103 = icmp sle i32 %102, 8192
  br i1 %103, label %105, label %104

104:                                              ; preds = %101
  store i32 8, ptr %8, align 4
  call void @llvm.lifetime.end.p0(i64 4, ptr %9) #13
  br label %154

105:                                              ; preds = %101
  call void @llvm.lifetime.start.p0(i64 4, ptr %10) #13
  %106 = load i32, ptr %9, align 4, !tbaa !11
  %107 = icmp eq i32 %106, 0
  br i1 %107, label %108, label %109

108:                                              ; preds = %105
  store i32 1, ptr %10, align 4, !tbaa !11
  br label %141

109:                                              ; preds = %105
  call void @llvm.lifetime.start.p0(i64 4, ptr %11) #13
  call void @llvm.lifetime.start.p0(i64 4, ptr %12) #13
  call void @llvm.lifetime.start.p0(i64 4, ptr %13) #13
  %110 = load i32, ptr %7, align 4, !tbaa !11
  %111 = sub nsw i32 %110, 1
  store i32 %111, ptr %12, align 4, !tbaa !11
  %112 = load i32, ptr %9, align 4, !tbaa !11
  store i32 %112, ptr %11, align 4, !tbaa !11
  %113 = load i32, ptr %11, align 4, !tbaa !11
  %114 = icmp slt i32 %113, 0
  br i1 %114, label %115, label %118

115:                                              ; preds = %109
  %116 = load i32, ptr %11, align 4, !tbaa !11
  %117 = sub nsw i32 0, %116
  store i32 %117, ptr %11, align 4, !tbaa !11
  br label %118

118:                                              ; preds = %115, %109
  %119 = load i32, ptr %11, align 4, !tbaa !11
  %120 = add nsw i32 %119, -1
  store i32 %120, ptr %11, align 4, !tbaa !11
  %121 = load i32, ptr %11, align 4, !tbaa !11
  %122 = load i32, ptr %12, align 4, !tbaa !11
  %123 = ashr i32 %121, %122
  %124 = add nsw i32 %123, 1
  store i32 %124, ptr %13, align 4, !tbaa !11
  %125 = load i32, ptr %13, align 4, !tbaa !11
  %126 = icmp slt i32 %125, 17
  br i1 %126, label %127, label %137

127:                                              ; preds = %118
  %128 = load i32, ptr %13, align 4, !tbaa !11
  %129 = sext i32 %128 to i64
  %130 = getelementptr inbounds [17 x [2 x i8]], ptr @ff_mpeg12_mbMotionVectorTable, i64 0, i64 %129
  %131 = getelementptr inbounds [2 x i8], ptr %130, i64 0, i64 1
  %132 = load i8, ptr %131, align 1, !tbaa !13
  %133 = zext i8 %132 to i32
  %134 = add nsw i32 %133, 1
  %135 = load i32, ptr %12, align 4, !tbaa !11
  %136 = add nsw i32 %134, %135
  store i32 %136, ptr %10, align 4, !tbaa !11
  br label %140

137:                                              ; preds = %118
  %138 = load i32, ptr %12, align 4, !tbaa !11
  %139 = add nsw i32 12, %138
  store i32 %139, ptr %10, align 4, !tbaa !11
  br label %140

140:                                              ; preds = %137, %127
  call void @llvm.lifetime.end.p0(i64 4, ptr %13) #13
  call void @llvm.lifetime.end.p0(i64 4, ptr %12) #13
  call void @llvm.lifetime.end.p0(i64 4, ptr %11) #13
  br label %141

141:                                              ; preds = %140, %108
  %142 = load i32, ptr %10, align 4, !tbaa !11
  %143 = trunc i32 %142 to i8
  %144 = load i32, ptr %7, align 4, !tbaa !11
  %145 = sext i32 %144 to i64
  %146 = getelementptr inbounds [8 x [16385 x i8]], ptr @mv_penalty, i64 0, i64 %145
  %147 = load i32, ptr %9, align 4, !tbaa !11
  %148 = add nsw i32 %147, 8192
  %149 = sext i32 %148 to i64
  %150 = getelementptr inbounds [16385 x i8], ptr %146, i64 0, i64 %149
  store i8 %143, ptr %150, align 1, !tbaa !13
  call void @llvm.lifetime.end.p0(i64 4, ptr %10) #13
  br label %151

151:                                              ; preds = %141
  %152 = load i32, ptr %9, align 4, !tbaa !11
  %153 = add nsw i32 %152, 1
  store i32 %153, ptr %9, align 4, !tbaa !11
  br label %101, !llvm.loop !179

154:                                              ; preds = %104
  br label %155

155:                                              ; preds = %154
  %156 = load i32, ptr %7, align 4, !tbaa !11
  %157 = add nsw i32 %156, 1
  store i32 %157, ptr %7, align 4, !tbaa !11
  br label %96, !llvm.loop !180

158:                                              ; preds = %99
  call void @llvm.lifetime.start.p0(i64 4, ptr %14) #13
  store i32 7, ptr %14, align 4, !tbaa !11
  br label %159

159:                                              ; preds = %184, %158
  %160 = load i32, ptr %14, align 4, !tbaa !11
  %161 = icmp sgt i32 %160, 0
  br i1 %161, label %163, label %162

162:                                              ; preds = %159
  store i32 11, ptr %8, align 4
  call void @llvm.lifetime.end.p0(i64 4, ptr %14) #13
  br label %187

163:                                              ; preds = %159
  call void @llvm.lifetime.start.p0(i64 4, ptr %15) #13
  %164 = load i32, ptr %14, align 4, !tbaa !11
  %165 = shl i32 8, %164
  %166 = sub nsw i32 0, %165
  store i32 %166, ptr %15, align 4, !tbaa !11
  br label %167

167:                                              ; preds = %180, %163
  %168 = load i32, ptr %15, align 4, !tbaa !11
  %169 = load i32, ptr %14, align 4, !tbaa !11
  %170 = shl i32 8, %169
  %171 = icmp slt i32 %168, %170
  br i1 %171, label %173, label %172

172:                                              ; preds = %167
  store i32 14, ptr %8, align 4
  call void @llvm.lifetime.end.p0(i64 4, ptr %15) #13
  br label %183

173:                                              ; preds = %167
  %174 = load i32, ptr %14, align 4, !tbaa !11
  %175 = trunc i32 %174 to i8
  %176 = load i32, ptr %15, align 4, !tbaa !11
  %177 = add nsw i32 %176, 4096
  %178 = sext i32 %177 to i64
  %179 = getelementptr inbounds [8193 x i8], ptr @fcode_tab, i64 0, i64 %178
  store i8 %175, ptr %179, align 1, !tbaa !13
  br label %180

180:                                              ; preds = %173
  %181 = load i32, ptr %15, align 4, !tbaa !11
  %182 = add nsw i32 %181, 1
  store i32 %182, ptr %15, align 4, !tbaa !11
  br label %167, !llvm.loop !181

183:                                              ; preds = %172
  br label %184

184:                                              ; preds = %183
  %185 = load i32, ptr %14, align 4, !tbaa !11
  %186 = add nsw i32 %185, -1
  store i32 %186, ptr %14, align 4, !tbaa !11
  br label %159, !llvm.loop !182

187:                                              ; preds = %162
  ret void
}