; Function Attrs: cold nounwind optsize uwtable
define internal void @mpeg12_encode_init_static() #3 {
  tail call void @ff_rl_init_level_run(ptr noundef nonnull @mpeg12_max_level, ptr noundef nonnull @mpeg12_index_run, ptr noundef nonnull @ff_mpeg12_run, ptr noundef nonnull @ff_mpeg12_level, i32 noundef 111) #10
  tail call void @ff_mpeg1_init_uni_ac_vlc(ptr noundef nonnull @mpeg12_max_level, ptr noundef nonnull @mpeg12_index_run, ptr noundef nonnull @ff_mpeg1_vlc_table, ptr noundef nonnull @uni_mpeg1_ac_vlc_len) #11
  tail call void @ff_mpeg1_init_uni_ac_vlc(ptr noundef nonnull @mpeg12_max_level, ptr noundef nonnull @mpeg12_index_run, ptr noundef nonnull @ff_mpeg2_vlc_table, ptr noundef nonnull @uni_mpeg2_ac_vlc_len) #11
  br label %1

1:                                                ; preds = %0, %1
  %indvars.iv = phi i64 [ -255, %0 ], [ %indvars.iv.next, %1 ]
  %2 = trunc nsw i64 %indvars.iv to i32
  %3 = tail call i32 @llvm.abs.i32(i32 %2, i1 true)
  %.055.lobit = ashr i32 %2, 31
  %spec.select = add nsw i32 %.055.lobit, %2
  %4 = shl nuw nsw i32 %3, 1
  %.not.i = icmp samesign ult i32 %3, 32768
  %5 = lshr i32 %3, 15
  %spec.select.i = select i1 %.not.i, i32 %4, i32 %5
  %spec.select12.i = select i1 %.not.i, i32 0, i32 16
  %.not11.i = icmp samesign ult i32 %spec.select.i, 256
  %6 = lshr i32 %spec.select.i, 8
  %7 = or disjoint i32 %spec.select12.i, 8
  %.110.i = select i1 %.not11.i, i32 %spec.select.i, i32 %6
  %.1.i = select i1 %.not11.i, i32 %spec.select12.i, i32 %7
  %8 = zext nneg i32 %.110.i to i64
  %9 = getelementptr inbounds nuw [256 x i8], ptr @ff_log2_tab, i64 0, i64 %8
  %10 = load i8, ptr %9, align 1, !tbaa !4
  %11 = zext i8 %10 to i32
  %12 = add nuw nsw i32 %.1.i, %11
  %13 = zext nneg i32 %12 to i64
  %14 = getelementptr inbounds nuw [12 x i8], ptr @ff_mpeg12_vlc_dc_lum_bits, i64 0, i64 %13
  %15 = load i8, ptr %14, align 1, !tbaa !4
  %16 = zext i8 %15 to i32
  %17 = add nuw nsw i32 %12, %16
  %18 = getelementptr inbounds nuw [12 x i16], ptr @ff_mpeg12_vlc_dc_lum_code, i64 0, i64 %13
  %19 = load i16, ptr %18, align 2, !tbaa !7
  %20 = zext i16 %19 to i32
  %21 = shl i32 %20, %12
  %notmask.i = shl nsw i32 -1, %12
  %22 = xor i32 %notmask.i, -1
  %23 = and i32 %spec.select, %22
  %24 = add i32 %21, %23
  %25 = shl i32 %24, 8
  %26 = add nsw i32 %17, %25
  %27 = add nsw i64 %indvars.iv, 255
  %28 = getelementptr inbounds [512 x i32], ptr @mpeg1_lum_dc_uni, i64 0, i64 %27
  store i32 %26, ptr %28, align 4, !tbaa !120
  %29 = getelementptr inbounds nuw [12 x i8], ptr @ff_mpeg12_vlc_dc_chroma_bits, i64 0, i64 %13
  %30 = load i8, ptr %29, align 1, !tbaa !4
  %31 = zext i8 %30 to i32
  %32 = add nuw nsw i32 %12, %31
  %33 = getelementptr inbounds nuw [12 x i16], ptr @ff_mpeg12_vlc_dc_chroma_code, i64 0, i64 %13
  %34 = load i16, ptr %33, align 2, !tbaa !7
  %35 = zext i16 %34 to i32
  %36 = shl i32 %35, %12
  %37 = add i32 %36, %23
  %38 = shl i32 %37, 8
  %39 = add nsw i32 %32, %38
  %40 = getelementptr inbounds [512 x i32], ptr @mpeg1_chr_dc_uni, i64 0, i64 %27
  store i32 %39, ptr %40, align 4, !tbaa !120
  %indvars.iv.next = add nsw i64 %indvars.iv, 1
  %exitcond.not = icmp eq i64 %indvars.iv.next, 256
  br i1 %exitcond.not, label %.preheader63, label %1, !llvm.loop !206

.preheader63:                                     ; preds = %1, %44
  %indvars.iv75 = phi i64 [ %indvars.iv.next76, %44 ], [ 1, %1 ]
  %41 = trunc i64 %indvars.iv75 to i32
  %42 = add i32 %41, -1
  %43 = trunc i64 %indvars.iv75 to i8
  br label %45

44:                                               ; preds = %58
  %indvars.iv.next76 = add nuw nsw i64 %indvars.iv75, 1
  %exitcond78.not = icmp eq i64 %indvars.iv.next76, 8
  br i1 %exitcond78.not, label %.preheader, label %.preheader63, !llvm.loop !207

45:                                               ; preds = %.preheader63, %58
  %indvars.iv71 = phi i64 [ -8192, %.preheader63 ], [ %indvars.iv.next72, %58 ]
  %46 = icmp eq i64 %indvars.iv71, 0
  br i1 %46, label %58, label %47

47:                                               ; preds = %45
  %48 = trunc nsw i64 %indvars.iv71 to i32
  %spec.select62 = tail call i32 @llvm.abs.i32(i32 %48, i1 true)
  %49 = add nsw i32 %spec.select62, -1
  %50 = ashr i32 %49, %42
  %51 = icmp slt i32 %50, 16
  br i1 %51, label %52, label %57

52:                                               ; preds = %47
  %53 = add nsw i32 %50, 1
  %54 = zext nneg i32 %53 to i64
  %55 = getelementptr inbounds nuw [17 x [2 x i8]], ptr @ff_mpeg12_mbMotionVectorTable, i64 0, i64 %54, i64 1
  %56 = load i8, ptr %55, align 1, !tbaa !4
  br label %57

57:                                               ; preds = %47, %52
  %.pn = phi i8 [ %56, %52 ], [ 11, %47 ]
  %.1 = add i8 %.pn, %43
  br label %58

58:                                               ; preds = %45, %57
  %.058 = phi i8 [ %.1, %57 ], [ 1, %45 ]
  %59 = add nsw i64 %indvars.iv71, 8192
  %60 = getelementptr inbounds [8 x [16385 x i8]], ptr @mv_penalty, i64 0, i64 %indvars.iv75, i64 %59
  store i8 %.058, ptr %60, align 1, !tbaa !4
  %indvars.iv.next72 = add nsw i64 %indvars.iv71, 1
  %exitcond74.not = icmp eq i64 %indvars.iv.next72, 8193
  br i1 %exitcond74.not, label %44, label %45, !llvm.loop !208

61:                                               ; preds = %._crit_edge
  ret void

.preheader:                                       ; preds = %44, %._crit_edge
  %.05469 = phi i32 [ %71, %._crit_edge ], [ 7, %44 ]
  %62 = shl i32 8, %.05469
  %63 = icmp sgt i32 %62, 0
  br i1 %63, label %.lr.ph, label %._crit_edge

.lr.ph:                                           ; preds = %.preheader
  %64 = trunc i32 %.05469 to i8
  %65 = sub nsw i32 4096, %62
  %66 = sext i32 %65 to i64
  %scevgep = getelementptr i8, ptr @fcode_tab, i64 %66
  %67 = shl i32 16, %.05469
  %68 = add i32 %67, -16
  %69 = zext i32 %68 to i64
  %70 = add nuw nsw i64 %69, 16
  tail call void @llvm.memset.p0.i64(ptr noundef nonnull align 8 dereferenceable(1) %scevgep, i8 %64, i64 %70, i1 false), !tbaa !4
  br label %._crit_edge

._crit_edge:                                      ; preds = %.lr.ph, %.preheader
  %71 = add nsw i32 %.05469, -1
  %72 = icmp samesign ugt i32 %.05469, 1
  br i1 %72, label %.preheader, label %61, !llvm.loop !209
}